target datalayout = "e-m:e-p270:32:32-p271:32:32-p272:64:64-i64:64-i128:128-f80:128-n8:16:32:64-S128"
target triple = "x86_64-pc-linux-gnu"

; Function Attrs: nounwind uwtable
define internal i32 @grob(double noundef %0, ptr noundef %1, ptr noundef %2, ptr noundef %3, ptr noundef %4) #0 {
  %6 = alloca double, align 8
  %7 = alloca ptr, align 8
  %8 = alloca ptr, align 8
  %9 = alloca ptr, align 8
  %10 = alloca ptr, align 8
  %11 = alloca ptr, align 8
  %12 = alloca double, align 8
  %13 = alloca double, align 8
  store double %0, ptr %6, align 8, !tbaa !22
  store ptr %1, ptr %7, align 8, !tbaa !8
  store ptr %2, ptr %8, align 8, !tbaa !8
  store ptr %3, ptr %9, align 8, !tbaa !10
  store ptr %4, ptr %10, align 8, !tbaa !4
  call void @llvm.lifetime.start.p0(i64 8, ptr %11) #5
  call void @llvm.lifetime.start.p0(i64 8, ptr %12) #5
  call void @llvm.lifetime.start.p0(i64 8, ptr %13) #5
  %14 = load ptr, ptr %7, align 8, !tbaa !8
  %15 = call ptr @N_VGetArrayPointer(ptr noundef %14)
  store ptr %15, ptr %11, align 8, !tbaa !10
  %16 = load ptr, ptr %11, align 8, !tbaa !10
  %17 = getelementptr inbounds double, ptr %16, i64 0
  %18 = load double, ptr %17, align 8, !tbaa !22
  store double %18, ptr %12, align 8, !tbaa !22
  %19 = load ptr, ptr %11, align 8, !tbaa !10
  %20 = getelementptr inbounds double, ptr %19, i64 2
  %21 = load double, ptr %20, align 8, !tbaa !22
  store double %21, ptr %13, align 8, !tbaa !22
  %22 = load double, ptr %12, align 8, !tbaa !22
  %23 = fsub double %22, 1.000000e-04
  %24 = load ptr, ptr %9, align 8, !tbaa !10
  %25 = getelementptr inbounds double, ptr %24, i64 0
  store double %23, ptr %25, align 8, !tbaa !22
  %26 = load double, ptr %13, align 8, !tbaa !22
  %27 = fsub double %26, 1.000000e-02
  %28 = load ptr, ptr %9, align 8, !tbaa !10
  %29 = getelementptr inbounds double, ptr %28, i64 1
  store double %27, ptr %29, align 8, !tbaa !22
  call void @llvm.lifetime.end.p0(i64 8, ptr %13) #5
  call void @llvm.lifetime.end.p0(i64 8, ptr %12) #5
  call void @llvm.lifetime.end.p0(i64 8, ptr %11) #5
  ret i32 0
}